; Function Attrs: nounwind uwtable
define dso_local ptr @fopen_or_warn(ptr noundef %0, ptr noundef %1) local_unnamed_addr #0 {
  %3 = tail call ptr @git_fopen(ptr noundef %0, ptr noundef %1) #20
  %.not = icmp eq ptr %3, null
  br i1 %.not, label %4, label %warn_on_fopen_errors.exit

4:                                                ; preds = %2
  %5 = tail call ptr @__errno_location() #26
  %6 = load i32, ptr %5, align 4, !tbaa !9
  switch i32 %6, label %7 [
    i32 2, label %warn_on_fopen_errors.exit
    i32 20, label %warn_on_fopen_errors.exit
  ]

7:                                                ; preds = %4
  %8 = load i32, ptr @git_gettext_enabled, align 4, !tbaa !9
  %.not4.i.i.i = icmp eq i32 %8, 0
  br i1 %.not4.i.i.i, label %warn_on_inaccessible.exit.i, label %9

9:                                                ; preds = %7
  %10 = tail call ptr @dcgettext(ptr noundef null, ptr noundef nonnull @.str.20, i32 noundef 5) #20
  br label %warn_on_inaccessible.exit.i

warn_on_inaccessible.exit.i:                      ; preds = %9, %7
  %.0.i.i.i = phi ptr [ %10, %9 ], [ @.str.20, %7 ]
  tail call void (ptr, ...) @warning_errno(ptr noundef %.0.i.i.i, ptr noundef %0) #20
  br label %warn_on_fopen_errors.exit

warn_on_fopen_errors.exit:                        ; preds = %warn_on_inaccessible.exit.i, %4, %4, %2
  ret ptr %3
}